; Function Attrs: nounwind uwtable
define range(i32 -1, 1) i32 @H5Pget_fill_value(i64 noundef %0, i64 noundef %1, ptr noundef %2) local_unnamed_addr #0 {
  %4 = alloca %struct.H5CX_node_t, align 8
  call void @llvm.lifetime.start.p0(i64 480, ptr nonnull %4) #12
  call void @llvm.memset.p0.i64(ptr noundef nonnull align 8 dereferenceable(480) %4, i8 0, i64 480, i1 false)
  %5 = load i8, ptr @H5_libinit_g, align 1, !tbaa !3, !range !7, !noundef !8
  %6 = trunc nuw i8 %5 to i1
  %7 = load i8, ptr @H5_libterm_g, align 1, !range !7
  %8 = trunc nuw i8 %7 to i1
  %9 = select i1 %6, i1 true, i1 %8
  br i1 %9, label %17, label %10, !prof !9

10:                                               ; preds = %3
  %11 = tail call i32 @H5_init_library() #12
  %12 = icmp slt i32 %11, 0
  br i1 %12, label %13, label %._crit_edge, !prof !23

._crit_edge:                                      ; preds = %10
  %.pre = load i8, ptr @H5_libterm_g, align 1, !range !7
  br label %17

13:                                               ; preds = %10
  %14 = load i64, ptr @H5E_FUNC_g, align 8, !tbaa !10
  %15 = load i64, ptr @H5E_CANTINIT_g, align 8, !tbaa !10
  %16 = tail call i32 (ptr, ptr, i32, i64, i64, ptr, ...) @H5E_printf_stack(ptr noundef nonnull @.str.1, ptr noundef nonnull @__func__.H5Pget_fill_value, i32 noundef 3150, i64 noundef %14, i64 noundef %15, ptr noundef nonnull @.str.2) #12
  br label %.thread28

17:                                               ; preds = %._crit_edge, %3
  %18 = phi i8 [ %.pre, %._crit_edge ], [ %7, %3 ]
  %19 = load i8, ptr @H5P_init_g, align 1, !tbaa !3, !range !7, !noundef !8
  %20 = trunc nuw i8 %19 to i1
  %21 = trunc nuw i8 %18 to i1
  %22 = select i1 %20, i1 true, i1 %21
  br i1 %22, label %30, label %23, !prof !9

23:                                               ; preds = %17
  store i8 1, ptr @H5P_init_g, align 1, !tbaa !3
  %24 = tail call i32 @H5P__init_package() #12
  %25 = icmp slt i32 %24, 0
  br i1 %25, label %26, label %30, !prof !24

26:                                               ; preds = %23
  store i8 0, ptr @H5P_init_g, align 1, !tbaa !3
  %27 = load i64, ptr @H5E_FUNC_g, align 8, !tbaa !10
  %28 = load i64, ptr @H5E_CANTINIT_g, align 8, !tbaa !10
  %29 = tail call i32 (ptr, ptr, i32, i64, i64, ptr, ...) @H5E_printf_stack(ptr noundef nonnull @.str.1, ptr noundef nonnull @__func__.H5Pget_fill_value, i32 noundef 3150, i64 noundef %27, i64 noundef %28, ptr noundef nonnull @.str.3) #12
  br label %.thread28

30:                                               ; preds = %17, %23
  %31 = call i32 @H5CX_push(ptr noundef nonnull %4) #12
  %32 = icmp slt i32 %31, 0
  br i1 %32, label %33, label %37, !prof !23

33:                                               ; preds = %30
  %34 = load i64, ptr @H5E_FUNC_g, align 8, !tbaa !10
  %35 = load i64, ptr @H5E_CANTSET_g, align 8, !tbaa !10
  %36 = call i32 (ptr, ptr, i32, i64, i64, ptr, ...) @H5E_printf_stack(ptr noundef nonnull @.str.1, ptr noundef nonnull @__func__.H5Pget_fill_value, i32 noundef 3150, i64 noundef %34, i64 noundef %35, ptr noundef nonnull @.str.4) #12
  br label %.thread28

37:                                               ; preds = %30
  %38 = call i32 @H5E_clear_stack() #12
  %39 = call ptr @H5I_object_verify(i64 noundef %1, i32 noundef 3) #12
  %40 = icmp eq ptr %39, null
  br i1 %40, label %41, label %45, !prof !25

41:                                               ; preds = %37
  %42 = load i64, ptr @H5E_ARGS_g, align 8, !tbaa !10
  %43 = load i64, ptr @H5E_BADTYPE_g, align 8, !tbaa !10
  %44 = call i32 (ptr, ptr, i32, i64, i64, ptr, ...) @H5E_printf_stack(ptr noundef nonnull @.str.1, ptr noundef nonnull @__func__.H5Pget_fill_value, i32 noundef 3154, i64 noundef %42, i64 noundef %43, ptr noundef nonnull @.str.65) #12
  br label %.thread34

45:                                               ; preds = %37
  %.not = icmp eq ptr %2, null
  br i1 %.not, label %46, label %50, !prof !25

46:                                               ; preds = %45
  %47 = load i64, ptr @H5E_ARGS_g, align 8, !tbaa !10
  %48 = load i64, ptr @H5E_BADVALUE_g, align 8, !tbaa !10
  %49 = call i32 (ptr, ptr, i32, i64, i64, ptr, ...) @H5E_printf_stack(ptr noundef nonnull @.str.1, ptr noundef nonnull @__func__.H5Pget_fill_value, i32 noundef 3156, i64 noundef %47, i64 noundef %48, ptr noundef nonnull @.str.76) #12
  br label %.thread34

50:                                               ; preds = %45
  %51 = load i64, ptr @H5P_CLS_DATASET_CREATE_ID_g, align 8, !tbaa !10
  %52 = call ptr @H5P_object_verify(i64 noundef %0, i64 noundef %51, i1 noundef zeroext true) #12
  %53 = icmp eq ptr %52, null
  br i1 %53, label %54, label %58, !prof !25

54:                                               ; preds = %50
  %55 = load i64, ptr @H5E_ID_g, align 8, !tbaa !10
  %56 = load i64, ptr @H5E_BADID_g, align 8, !tbaa !10
  %57 = call i32 (ptr, ptr, i32, i64, i64, ptr, ...) @H5E_printf_stack(ptr noundef nonnull @.str.1, ptr noundef nonnull @__func__.H5Pget_fill_value, i32 noundef 3160, i64 noundef %55, i64 noundef %56, ptr noundef nonnull @.str.6) #12
  br label %.thread34

58:                                               ; preds = %50
  %59 = call i32 @H5P_get_fill_value(ptr noundef nonnull %52, ptr noundef nonnull %39, ptr noundef nonnull %2)
  %60 = icmp slt i32 %59, 0
  br i1 %60, label %61, label %66, !prof !25

61:                                               ; preds = %58
  %62 = load i64, ptr @H5E_PLIST_g, align 8, !tbaa !10
  %63 = load i64, ptr @H5E_CANTGET_g, align 8, !tbaa !10
  %64 = call i32 (ptr, ptr, i32, i64, i64, ptr, ...) @H5E_printf_stack(ptr noundef nonnull @.str.1, ptr noundef nonnull @__func__.H5Pget_fill_value, i32 noundef 3164, i64 noundef %62, i64 noundef %63, ptr noundef nonnull @.str.64) #12
  br label %.thread34

.thread34:                                        ; preds = %46, %61, %54, %41
  %65 = call i32 @H5CX_pop(i1 noundef zeroext true) #12
  br label %.thread28

66:                                               ; preds = %58
  %67 = call i32 @H5CX_pop(i1 noundef zeroext true) #12
  br label %69

.thread28:                                        ; preds = %33, %26, %13, %.thread34
  %68 = call i32 @H5E_dump_api_stack() #12
  br label %69

69:                                               ; preds = %66, %.thread28
  %.0162331 = phi i32 [ -1, %.thread28 ], [ 0, %66 ]
  call void @llvm.lifetime.end.p0(i64 480, ptr nonnull %4) #12
  ret i32 %.0162331
}